; Function Attrs: mustprogress nounwind uwtable
define internal fastcc void @_ZL18stripTrailingZerosRKNSt7__cxx1112basic_stringIcSt11char_traitsIcESaIcEEE(ptr dead_on_unwind noalias writable align 8 %0, ptr noundef nonnull align 8 dereferenceable(32) %1) unnamed_addr #2 {
  %3 = tail call noundef i64 @_ZNKSt7__cxx1112basic_stringIcSt11char_traitsIcESaIcEE16find_last_not_ofEcm(ptr noundef nonnull align 8 dereferenceable(32) %1, i8 noundef signext 48, i64 noundef -1) #12
  %4 = tail call noundef nonnull align 1 dereferenceable(1) ptr @_ZNKSt7__cxx1112basic_stringIcSt11char_traitsIcESaIcEEixEm(ptr noundef nonnull align 8 dereferenceable(32) %1, i64 noundef %3) #12
  %5 = load i8, ptr %4, align 1
  %6 = icmp eq i8 %5, 46
  %7 = zext i1 %6 to i64
  %spec.select = add i64 %3, 1
  %8 = add i64 %spec.select, %7
  tail call void @_ZNKSt7__cxx1112basic_stringIcSt11char_traitsIcESaIcEE6substrEmm(ptr dead_on_unwind writable sret(%"class.std::__cxx11::basic_string") align 8 %0, ptr noundef nonnull align 8 dereferenceable(32) %1, i64 noundef 0, i64 noundef %8) #12
  ret void
}